(dp1
S'screenToShow'
p2
I1
sS'fullScreen'
p3
I01
sS'screenColor'
p4
(I128
I128
I128
tp5
sS'fixCrossSize'
p6
I10
sS'stimDur'
p7
I1
sS'imageSuffix'
p8
S'.jpg'
p9
sS'promptFile'
p10
S'SamplePrompts.txt'
p11
sS'respAdvances'
p12
I01
sS'imageDir'
p13
S'Faces/'
p14
sS'ISI'
p15
I2
sS'triggerKey'
p16
S't'
sS'fixCrossPos'
p17
(lp18
I0
aI0
asS'skipPrompts'
p19
I00
sS'promptDir'
p20
S'Text/'
p21
sS'tStartup'
p22
I2
sS'nTrials'
p23
I3
sS'respKeys'
p24
(lp25
S'r'
aS'b'
aS'y'
aS'g'
as.